(lp1
I0
aI1
aI2
aI3
aI4
aI5
aI6
aI7
aI8
aI9
aI10
aI11
aI12
aI13
aI14
aI15
aI16
aI17
aI18
aI19
aI20
aI21
aI22
aI23
aI24
aI25
aI26
aI27
aI28
aI29
aI30
aI31
aI32
aI33
aI34
aI35
aI36
aI37
aI38
aI39
aI40
aI41
aI42
aI43
aI44
aI45
aI46
aI47
aI48
aI49
aI50
aI51
aI52
aI53
aI54
aI55
aI56
aI57
aI58
aI59
aI60
aI61
aI62
aI63
aI64
aI65
aI66
aI67
aI68
aI69
aI70
aI71
aI72
aI73
aI74
aI75
aI76
aI77
aI78
aI79
aI80
aI81
aI82
aI83
aI84
aI85
aI86
aI87
aI88
aI89
aI90
aI91
aI92
aI93
a.(lp1
I48
aI45
aI46
aI47
aI43
aI42
aI41
aI22
aI21
aI20
aI24
aI23
aI25
aI26
aI27
aI28
aI33
aI32
aI31
aI30
aI29
aI34
aI35
aI36
aI37
aI39
aI40
aI12
aI13
aI14
aI15
aI10
aI11
aI9
aI8
aI7
aI4
aI5
aI6
aI1
aI2
aI3
aI54
aI0
aI16
aI19
aI18
aI17
aI44
aI49
aI97
aI98
aI99
aI93
aI94
aI91
aI92
aI71
aI72
aI73
aI74
aI75
aI83
aI84
aI81
aI82
aI80
aI78
aI79
aI76
aI77
aI85
aI38
aI50
aI89
aI90
aI69
aI70
aI68
aI67
aI66
aI65
aI64
aI59
aI60
aI61
aI62
aI63
aI55
aI56
aI57
aI58
aI95
aI96
a.